; Function Attrs: nounwind uwtable
define noalias ptr @l_Std_Sat_AIG_RefVec_fold___rarg(ptr noundef readnone captures(none) %0, ptr noundef readnone captures(none) %1, ptr noundef %2, ptr noundef %3, ptr noundef readonly captures(none) %4, ptr noundef %5, ptr noundef readnone captures(none) %6) local_unnamed_addr #0 {
  tail call void @lean_inc_heartbeat() #3
  %8 = tail call noalias ptr @mi_malloc_small(i64 noundef 24) #3
  %9 = icmp eq ptr %8, null
  br i1 %9, label %10, label %lean_alloc_ctor.exit

10:                                               ; preds = %7
  tail call void @lean_internal_panic_out_of_memory() #4
  unreachable

lean_alloc_ctor.exit:                             ; preds = %7
  %11 = getelementptr inbounds nuw i8, ptr %8, i64 4
  %12 = getelementptr inbounds nuw i8, ptr %8, i64 16
  store i64 1, ptr %12, align 8, !tbaa !13
  store i32 1, ptr %8, align 4, !tbaa !5
  store i32 65560, ptr %11, align 4
  %13 = getelementptr inbounds nuw i8, ptr %8, i64 8
  store ptr inttoptr (i64 1 to ptr), ptr %13, align 8, !tbaa !11
  %14 = tail call ptr @l_Std_Sat_AIG_RefVec_fold_go___rarg(ptr poison, ptr poison, ptr noundef %3, ptr noundef nonnull %8, ptr noundef nonnull inttoptr (i64 1 to ptr), ptr noundef %2, ptr noundef %4, ptr noundef %5, ptr nonnull poison)
  ret ptr %14
}